target datalayout = "e-m:e-p270:32:32-p271:32:32-p272:64:64-i64:64-i128:128-f80:128-n8:16:32:64-S128"
target triple = "x86_64-pc-linux-gnu"

%class.cmFileLockPool = type { %"class.std::vector", %"class.std::vector", %"class.cmFileLockPool::ScopePool" }
%"class.std::vector" = type { %"struct.std::_Vector_base" }
%"struct.std::_Vector_base" = type { %"struct.std::_Vector_base<cmFileLockPool::ScopePool, std::allocator<cmFileLockPool::ScopePool>>::_Vector_impl" }
%"struct.std::_Vector_base<cmFileLockPool::ScopePool, std::allocator<cmFileLockPool::ScopePool>>::_Vector_impl" = type { %"struct.std::_Vector_base<cmFileLockPool::ScopePool, std::allocator<cmFileLockPool::ScopePool>>::_Vector_impl_data" }
%"struct.std::_Vector_base<cmFileLockPool::ScopePool, std::allocator<cmFileLockPool::ScopePool>>::_Vector_impl_data" = type { ptr, ptr, ptr }
%"class.cmFileLockPool::ScopePool" = type { %"class.std::vector.0" }
%"class.std::vector.0" = type { %"struct.std::_Vector_base.1" }
%"struct.std::_Vector_base.1" = type { %"struct.std::_Vector_base<cmFileLock, std::allocator<cmFileLock>>::_Vector_impl" }
%"struct.std::_Vector_base<cmFileLock, std::allocator<cmFileLock>>::_Vector_impl" = type { %"struct.std::_Vector_base<cmFileLock, std::allocator<cmFileLock>>::_Vector_impl_data" }
%"struct.std::_Vector_base<cmFileLock, std::allocator<cmFileLock>>::_Vector_impl_data" = type { ptr, ptr, ptr }
%class.cmFileLockResult = type { i32, i32 }
%"class.__gnu_cxx::__normal_iterator.8" = type { ptr }

; Function Attrs: mustprogress nounwind uwtable
define linkonce_odr dso_local noundef nonnull align 8 dereferenceable(8) ptr @_ZNK9__gnu_cxx17__normal_iteratorIPKN14cmFileLockPool9ScopePoolESt6vectorIS2_SaIS2_EEE4baseEv(ptr noundef nonnull align 8 dereferenceable(8) %0) #1 comdat align 2 {
  %2 = alloca ptr, align 8
  store ptr %0, ptr %2, align 8
  %3 = load ptr, ptr %2, align 8
  %4 = getelementptr inbounds %"class.__gnu_cxx::__normal_iterator.8", ptr %3, i32 0, i32 0
  ret ptr %4
}

; Function Attrs: mustprogress nounwind uwtable
define linkonce_odr dso_local void @_ZN9__gnu_cxx17__normal_iteratorIPKN14cmFileLockPool9ScopePoolESt6vectorIS2_SaIS2_EEEC2ERKS4_(ptr noundef nonnull align 8 dereferenceable(8) %0, ptr noundef nonnull align 8 dereferenceable(8) %1) unnamed_addr #1 comdat align 2 {
  %3 = alloca ptr, align 8
  %4 = alloca ptr, align 8
  store ptr %0, ptr %3, align 8
  store ptr %1, ptr %4, align 8
  %5 = load ptr, ptr %3, align 8
  %6 = getelementptr inbounds %"class.__gnu_cxx::__normal_iterator.8", ptr %5, i32 0, i32 0
  %7 = load ptr, ptr %4, align 8
  %8 = load ptr, ptr %7, align 8
  store ptr %8, ptr %6, align 8
  ret void
}

; Function Attrs: mustprogress nounwind uwtable
define linkonce_odr dso_local noundef nonnull align 8 dereferenceable(8) ptr @_ZN9__gnu_cxx17__normal_iteratorIPKN14cmFileLockPool9ScopePoolESt6vectorIS2_SaIS2_EEEppEv(ptr noundef nonnull align 8 dereferenceable(8) %0) #1 comdat align 2 {
  %2 = alloca ptr, align 8
  store ptr %0, ptr %2, align 8
  %3 = load ptr, ptr %2, align 8
  %4 = getelementptr inbounds %"class.__gnu_cxx::__normal_iterator.8", ptr %3, i32 0, i32 0
  %5 = load ptr, ptr %4, align 8
  %6 = getelementptr inbounds %"class.cmFileLockPool::ScopePool", ptr %5, i32 1
  store ptr %6, ptr %4, align 8
  ret ptr %3
}

; Function Attrs: mustprogress nounwind uwtable
define linkonce_odr dso_local noundef nonnull align 8 dereferenceable(24) ptr @_ZNK9__gnu_cxx17__normal_iteratorIPKN14cmFileLockPool9ScopePoolESt6vectorIS2_SaIS2_EEEdeEv(ptr noundef nonnull align 8 dereferenceable(8) %0) #1 comdat align 2 {
  %2 = alloca ptr, align 8
  store ptr %0, ptr %2, align 8
  %3 = load ptr, ptr %2, align 8
  %4 = getelementptr inbounds %"class.__gnu_cxx::__normal_iterator.8", ptr %3, i32 0, i32 0
  %5 = load ptr, ptr %4, align 8
  ret ptr %5
}

; Function Attrs: mustprogress nounwind uwtable
define linkonce_odr dso_local noundef zeroext i1 @_ZN9__gnu_cxxneIPKN14cmFileLockPool9ScopePoolESt6vectorIS2_SaIS2_EEEEbRKNS_17__normal_iteratorIT_T0_EESD_(ptr noundef nonnull align 8 dereferenceable(8) %0, ptr noundef nonnull align 8 dereferenceable(8) %1) #1 comdat {
  %3 = alloca ptr, align 8
  %4 = alloca ptr, align 8
  store ptr %0, ptr %3, align 8
  store ptr %1, ptr %4, align 8
  %5 = load ptr, ptr %3, align 8
  %6 = call noundef nonnull align 8 dereferenceable(8) ptr @_ZNK9__gnu_cxx17__normal_iteratorIPKN14cmFileLockPool9ScopePoolESt6vectorIS2_SaIS2_EEE4baseEv(ptr noundef nonnull align 8 dereferenceable(8) %5) #9
  %7 = load ptr, ptr %6, align 8
  %8 = load ptr, ptr %4, align 8
  %9 = call noundef nonnull align 8 dereferenceable(8) ptr @_ZNK9__gnu_cxx17__normal_iteratorIPKN14cmFileLockPool9ScopePoolESt6vectorIS2_SaIS2_EEE4baseEv(ptr noundef nonnull align 8 dereferenceable(8) %8) #9
  %10 = load ptr, ptr %9, align 8
  %11 = icmp ne ptr %7, %10
  ret i1 %11
}

; Function Attrs: mustprogress nounwind uwtable
define linkonce_odr dso_local ptr @_ZNKSt6vectorIN14cmFileLockPool9ScopePoolESaIS1_EE3endEv(ptr noundef nonnull align 8 dereferenceable(24) %0) #1 comdat align 2 {
  %2 = alloca %"class.__gnu_cxx::__normal_iterator.8", align 8
  %3 = alloca ptr, align 8
  store ptr %0, ptr %3, align 8
  %4 = load ptr, ptr %3, align 8
  %5 = getelementptr inbounds %"struct.std::_Vector_base", ptr %4, i32 0, i32 0
  %6 = getelementptr inbounds %"struct.std::_Vector_base<cmFileLockPool::ScopePool, std::allocator<cmFileLockPool::ScopePool>>::_Vector_impl_data", ptr %5, i32 0, i32 1
  call void @_ZN9__gnu_cxx17__normal_iteratorIPKN14cmFileLockPool9ScopePoolESt6vectorIS2_SaIS2_EEEC2ERKS4_(ptr noundef nonnull align 8 dereferenceable(8) %2, ptr noundef nonnull align 8 dereferenceable(8) %6) #9
  %7 = getelementptr inbounds %"class.__gnu_cxx::__normal_iterator.8", ptr %2, i32 0, i32 0
  %8 = load ptr, ptr %7, align 8
  ret ptr %8
}

; Function Attrs: mustprogress nounwind uwtable
define linkonce_odr dso_local ptr @_ZNKSt6vectorIN14cmFileLockPool9ScopePoolESaIS1_EE5beginEv(ptr noundef nonnull align 8 dereferenceable(24) %0) #1 comdat align 2 {
  %2 = alloca %"class.__gnu_cxx::__normal_iterator.8", align 8
  %3 = alloca ptr, align 8
  store ptr %0, ptr %3, align 8
  %4 = load ptr, ptr %3, align 8
  %5 = getelementptr inbounds %"struct.std::_Vector_base", ptr %4, i32 0, i32 0
  %6 = getelementptr inbounds %"struct.std::_Vector_base<cmFileLockPool::ScopePool, std::allocator<cmFileLockPool::ScopePool>>::_Vector_impl_data", ptr %5, i32 0, i32 0
  call void @_ZN9__gnu_cxx17__normal_iteratorIPKN14cmFileLockPool9ScopePoolESt6vectorIS2_SaIS2_EEEC2ERKS4_(ptr noundef nonnull align 8 dereferenceable(8) %2, ptr noundef nonnull align 8 dereferenceable(8) %6) #9
  %7 = getelementptr inbounds %"class.__gnu_cxx::__normal_iterator.8", ptr %2, i32 0, i32 0
  %8 = load ptr, ptr %7, align 8
  ret ptr %8
}

; Function Attrs: mustprogress uwtable
define dso_local noundef zeroext i1 @_ZNK14cmFileLockPool15IsAlreadyLockedERKNSt7__cxx1112basic_stringIcSt11char_traitsIcESaIcEEE(ptr noundef nonnull align 8 dereferenceable(72) %0, ptr noundef nonnull align 8 dereferenceable(32) %1) #0 align 2 {
  %3 = alloca i1, align 1
  %4 = alloca ptr, align 8
  %5 = alloca ptr, align 8
  %6 = alloca ptr, align 8
  %7 = alloca %"class.__gnu_cxx::__normal_iterator.8", align 8
  %8 = alloca %"class.__gnu_cxx::__normal_iterator.8", align 8
  %9 = alloca ptr, align 8
  %10 = alloca i8, align 1
  %11 = alloca ptr, align 8
  %12 = alloca %"class.__gnu_cxx::__normal_iterator.8", align 8
  %13 = alloca %"class.__gnu_cxx::__normal_iterator.8", align 8
  %14 = alloca ptr, align 8
  %15 = alloca i8, align 1
  store ptr %0, ptr %4, align 8
  store ptr %1, ptr %5, align 8
  %16 = load ptr, ptr %4, align 8
  %17 = getelementptr inbounds %class.cmFileLockPool, ptr %16, i32 0, i32 0
  store ptr %17, ptr %6, align 8
  %18 = load ptr, ptr %6, align 8
  %19 = call ptr @_ZNKSt6vectorIN14cmFileLockPool9ScopePoolESaIS1_EE5beginEv(ptr noundef nonnull align 8 dereferenceable(24) %18) #9
  %20 = getelementptr inbounds %"class.__gnu_cxx::__normal_iterator.8", ptr %7, i32 0, i32 0
  store ptr %19, ptr %20, align 8
  %21 = load ptr, ptr %6, align 8
  %22 = call ptr @_ZNKSt6vectorIN14cmFileLockPool9ScopePoolESaIS1_EE3endEv(ptr noundef nonnull align 8 dereferenceable(24) %21) #9
  %23 = getelementptr inbounds %"class.__gnu_cxx::__normal_iterator.8", ptr %8, i32 0, i32 0
  store ptr %22, ptr %23, align 8
  br label %24

24:                                               ; preds = %36, %2
  %25 = call noundef zeroext i1 @_ZN9__gnu_cxxneIPKN14cmFileLockPool9ScopePoolESt6vectorIS2_SaIS2_EEEEbRKNS_17__normal_iteratorIT_T0_EESD_(ptr noundef nonnull align 8 dereferenceable(8) %7, ptr noundef nonnull align 8 dereferenceable(8) %8) #9
  br i1 %25, label %26, label %38

26:                                               ; preds = %24
  %27 = call noundef nonnull align 8 dereferenceable(24) ptr @_ZNK9__gnu_cxx17__normal_iteratorIPKN14cmFileLockPool9ScopePoolESt6vectorIS2_SaIS2_EEEdeEv(ptr noundef nonnull align 8 dereferenceable(8) %7) #9
  store ptr %27, ptr %9, align 8
  %28 = load ptr, ptr %9, align 8
  %29 = load ptr, ptr %5, align 8
  %30 = call noundef zeroext i1 @_ZNK14cmFileLockPool9ScopePool15IsAlreadyLockedERKNSt7__cxx1112basic_stringIcSt11char_traitsIcESaIcEEE(ptr noundef nonnull align 8 dereferenceable(24) %28, ptr noundef nonnull align 8 dereferenceable(32) %29)
  %31 = zext i1 %30 to i8
  store i8 %31, ptr %10, align 1
  %32 = load i8, ptr %10, align 1
  %33 = trunc i8 %32 to i1
  br i1 %33, label %34, label %35

34:                                               ; preds = %26
  store i1 true, ptr %3, align 1
  br label %64

35:                                               ; preds = %26
  br label %36

36:                                               ; preds = %35
  %37 = call noundef nonnull align 8 dereferenceable(8) ptr @_ZN9__gnu_cxx17__normal_iteratorIPKN14cmFileLockPool9ScopePoolESt6vectorIS2_SaIS2_EEEppEv(ptr noundef nonnull align 8 dereferenceable(8) %7) #9
  br label %24

38:                                               ; preds = %24
  %39 = getelementptr inbounds %class.cmFileLockPool, ptr %16, i32 0, i32 1
  store ptr %39, ptr %11, align 8
  %40 = load ptr, ptr %11, align 8
  %41 = call ptr @_ZNKSt6vectorIN14cmFileLockPool9ScopePoolESaIS1_EE5beginEv(ptr noundef nonnull align 8 dereferenceable(24) %40) #9
  %42 = getelementptr inbounds %"class.__gnu_cxx::__normal_iterator.8", ptr %12, i32 0, i32 0
  store ptr %41, ptr %42, align 8
  %43 = load ptr, ptr %11, align 8
  %44 = call ptr @_ZNKSt6vectorIN14cmFileLockPool9ScopePoolESaIS1_EE3endEv(ptr noundef nonnull align 8 dereferenceable(24) %43) #9
  %45 = getelementptr inbounds %"class.__gnu_cxx::__normal_iterator.8", ptr %13, i32 0, i32 0
  store ptr %44, ptr %45, align 8
  br label %46

46:                                               ; preds = %58, %38
  %47 = call noundef zeroext i1 @_ZN9__gnu_cxxneIPKN14cmFileLockPool9ScopePoolESt6vectorIS2_SaIS2_EEEEbRKNS_17__normal_iteratorIT_T0_EESD_(ptr noundef nonnull align 8 dereferenceable(8) %12, ptr noundef nonnull align 8 dereferenceable(8) %13) #9
  br i1 %47, label %48, label %60

48:                                               ; preds = %46
  %49 = call noundef nonnull align 8 dereferenceable(24) ptr @_ZNK9__gnu_cxx17__normal_iteratorIPKN14cmFileLockPool9ScopePoolESt6vectorIS2_SaIS2_EEEdeEv(ptr noundef nonnull align 8 dereferenceable(8) %12) #9
  store ptr %49, ptr %14, align 8
  %50 = load ptr, ptr %14, align 8
  %51 = load ptr, ptr %5, align 8
  %52 = call noundef zeroext i1 @_ZNK14cmFileLockPool9ScopePool15IsAlreadyLockedERKNSt7__cxx1112basic_stringIcSt11char_traitsIcESaIcEEE(ptr noundef nonnull align 8 dereferenceable(24) %50, ptr noundef nonnull align 8 dereferenceable(32) %51)
  %53 = zext i1 %52 to i8
  store i8 %53, ptr %15, align 1
  %54 = load i8, ptr %15, align 1
  %55 = trunc i8 %54 to i1
  br i1 %55, label %56, label %57

56:                                               ; preds = %48
  store i1 true, ptr %3, align 1
  br label %64

57:                                               ; preds = %48
  br label %58

58:                                               ; preds = %57
  %59 = call noundef nonnull align 8 dereferenceable(8) ptr @_ZN9__gnu_cxx17__normal_iteratorIPKN14cmFileLockPool9ScopePoolESt6vectorIS2_SaIS2_EEEppEv(ptr noundef nonnull align 8 dereferenceable(8) %12) #9
  br label %46

60:                                               ; preds = %46
  %61 = getelementptr inbounds %class.cmFileLockPool, ptr %16, i32 0, i32 2
  %62 = load ptr, ptr %5, align 8
  %63 = call noundef zeroext i1 @_ZNK14cmFileLockPool9ScopePool15IsAlreadyLockedERKNSt7__cxx1112basic_stringIcSt11char_traitsIcESaIcEEE(ptr noundef nonnull align 8 dereferenceable(24) %61, ptr noundef nonnull align 8 dereferenceable(32) %62)
  store i1 %63, ptr %3, align 1
  br label %64

64:                                               ; preds = %60, %56, %34
  %65 = load i1, ptr %3, align 1
  ret i1 %65
}

; Function Attrs: mustprogress uwtable
define dso_local i64 @_ZN14cmFileLockPool16LockProcessScopeERKNSt7__cxx1112basic_stringIcSt11char_traitsIcESaIcEEEm(ptr noundef nonnull align 8 dereferenceable(72) %0, ptr noundef nonnull align 8 dereferenceable(32) %1, i64 noundef %2) #0 align 2 {
  %4 = alloca %class.cmFileLockResult, align 4
  %5 = alloca ptr, align 8
  %6 = alloca ptr, align 8
  %7 = alloca i64, align 8
  store ptr %0, ptr %5, align 8
  store ptr %1, ptr %6, align 8
  store i64 %2, ptr %7, align 8
  %8 = load ptr, ptr %5, align 8
  %9 = load ptr, ptr %6, align 8
  %10 = call noundef zeroext i1 @_ZNK14cmFileLockPool15IsAlreadyLockedERKNSt7__cxx1112basic_stringIcSt11char_traitsIcESaIcEEE(ptr noundef nonnull align 8 dereferenceable(72) %8, ptr noundef nonnull align 8 dereferenceable(32) %9)
  br i1 %10, label %11, label %13

11:                                               ; preds = %3
  %12 = call i64 @_ZN16cmFileLockResult17MakeAlreadyLockedEv()
  store i64 %12, ptr %4, align 4
  br label %18

13:                                               ; preds = %3
  %14 = getelementptr inbounds %class.cmFileLockPool, ptr %8, i32 0, i32 2
  %15 = load ptr, ptr %6, align 8
  %16 = load i64, ptr %7, align 8
  %17 = call i64 @_ZN14cmFileLockPool9ScopePool4LockERKNSt7__cxx1112basic_stringIcSt11char_traitsIcESaIcEEEm(ptr noundef nonnull align 8 dereferenceable(24) %14, ptr noundef nonnull align 8 dereferenceable(32) %15, i64 noundef %16)
  store i64 %17, ptr %4, align 4
  br label %18

18:                                               ; preds = %13, %11
  %19 = load i64, ptr %4, align 4
  ret i64 %19
}